; Function Attrs: mustprogress nounwind uwtable
define hidden noundef zeroext i1 @_ZNK7Compile22expensive_nodes_sortedEv(ptr nocapture noundef nonnull readonly align 8 dereferenceable(2316) %0) local_unnamed_addr #0 align 2 {
  %2 = getelementptr inbounds i8, ptr %0, i64 488
  %3 = load i32, ptr %2, align 8
  %4 = icmp slt i32 %3, 2
  br i1 %4, label %_ZN7Compile19cmp_expensive_nodesEPP4NodeS2_.exit, label %.lr.ph

.lr.ph:                                           ; preds = %1
  %5 = getelementptr inbounds i8, ptr %0, i64 496
  br label %6

6:                                                ; preds = %.lr.ph, %.loopexit
  %indvars.iv = phi i64 [ 1, %.lr.ph ], [ %indvars.iv.next, %.loopexit ]
  %7 = load ptr, ptr %5, align 8
  %8 = getelementptr ptr, ptr %7, i64 %indvars.iv
  %9 = getelementptr i8, ptr %8, i64 -8
  %10 = load ptr, ptr %8, align 8
  %11 = load ptr, ptr %9, align 8
  %12 = load ptr, ptr %10, align 8
  %13 = load ptr, ptr %12, align 8
  %14 = tail call noundef i32 %13(ptr noundef nonnull align 8 dereferenceable(52) %10) #17
  %15 = load ptr, ptr %11, align 8
  %16 = load ptr, ptr %15, align 8
  %17 = tail call noundef i32 %16(ptr noundef nonnull align 8 dereferenceable(52) %11) #17
  %18 = icmp sge i32 %14, %17
  br i1 %18, label %19, label %_ZN7Compile19cmp_expensive_nodesEPP4NodeS2_.exit

19:                                               ; preds = %6
  %20 = load ptr, ptr %10, align 8
  %21 = load ptr, ptr %20, align 8
  %22 = tail call noundef i32 %21(ptr noundef nonnull align 8 dereferenceable(52) %10) #17
  %23 = load ptr, ptr %11, align 8
  %24 = load ptr, ptr %23, align 8
  %25 = tail call noundef i32 %24(ptr noundef nonnull align 8 dereferenceable(52) %11) #17
  %26 = icmp sgt i32 %22, %25
  br i1 %26, label %.loopexit, label %.preheader.i.i

.preheader.i.i:                                   ; preds = %19
  %27 = getelementptr inbounds i8, ptr %10, i64 24
  %28 = load i32, ptr %27, align 8
  %29 = icmp ugt i32 %28, 1
  br i1 %29, label %.lr.ph.i.i, label %.loopexit

.lr.ph.i.i:                                       ; preds = %.preheader.i.i
  %30 = getelementptr inbounds i8, ptr %10, i64 8
  %31 = load ptr, ptr %30, align 8
  %32 = getelementptr inbounds i8, ptr %11, i64 8
  %33 = load ptr, ptr %32, align 8
  %wide.trip.count.i.i = zext i32 %28 to i64
  br label %34

34:                                               ; preds = %40, %.lr.ph.i.i
  %indvars.iv.i.i = phi i64 [ 1, %.lr.ph.i.i ], [ %indvars.iv.next.i.i, %40 ]
  %35 = getelementptr inbounds ptr, ptr %31, i64 %indvars.iv.i.i
  %36 = load ptr, ptr %35, align 8
  %37 = getelementptr inbounds ptr, ptr %33, i64 %indvars.iv.i.i
  %38 = load ptr, ptr %37, align 8
  %39 = icmp ult ptr %36, %38
  br i1 %39, label %_ZN7Compile19cmp_expensive_nodesEPP4NodeS2_.exit, label %40

40:                                               ; preds = %34
  %41 = icmp ugt ptr %36, %38
  %indvars.iv.next.i.i = add nuw nsw i64 %indvars.iv.i.i, 1
  %exitcond.not.i.i = icmp eq i64 %indvars.iv.next.i.i, %wide.trip.count.i.i
  %or.cond = select i1 %41, i1 true, i1 %exitcond.not.i.i
  br i1 %or.cond, label %.loopexit, label %34, !llvm.loop !92

.loopexit:                                        ; preds = %40, %19, %.preheader.i.i
  %indvars.iv.next = add nuw nsw i64 %indvars.iv, 1
  %42 = load i32, ptr %2, align 8
  %43 = sext i32 %42 to i64
  %.not = icmp slt i64 %indvars.iv.next, %43
  br i1 %.not, label %6, label %_ZN7Compile19cmp_expensive_nodesEPP4NodeS2_.exit, !llvm.loop !93

_ZN7Compile19cmp_expensive_nodesEPP4NodeS2_.exit: ; preds = %.loopexit, %6, %34, %1
  %44 = phi i1 [ true, %1 ], [ false, %34 ], [ %18, %.loopexit ], [ false, %6 ]
  ret i1 %44
}